target datalayout = "e-m:e-p270:32:32-p271:32:32-p272:64:64-i64:64-i128:128-f80:128-n8:16:32:64-S128"
target triple = "x86_64-pc-linux-gnu"

%class.Handle = type { ptr }

; Function Attrs: mustprogress nounwind uwtable
define linkonce_odr hidden noundef ptr @_ZNK6Handle3objEv(ptr noundef nonnull align 8 dereferenceable(8) %0) #1 comdat align 2 {
  %2 = alloca ptr, align 8
  store ptr %0, ptr %2, align 8
  %3 = load ptr, ptr %2, align 8
  %4 = getelementptr inbounds %class.Handle, ptr %3, i32 0, i32 0
  %5 = load ptr, ptr %4, align 8
  %6 = icmp eq ptr %5, null
  br i1 %6, label %7, label %8

7:                                                ; preds = %1
  br label %12

8:                                                ; preds = %1
  %9 = getelementptr inbounds %class.Handle, ptr %3, i32 0, i32 0
  %10 = load ptr, ptr %9, align 8
  %11 = load ptr, ptr %10, align 8
  br label %12

12:                                               ; preds = %8, %7
  %13 = phi ptr [ null, %7 ], [ %11, %8 ]
  ret ptr %13
}

; Function Attrs: mustprogress nounwind uwtable
define hidden noundef ptr @_ZN18ObjectSynchronizer11inflate_forEP10JavaThreadP7oopDescNS_12InflateCauseE(ptr noundef %0, ptr noundef %1, i32 noundef %2) #1 align 2 {
  %4 = alloca ptr, align 8
  %5 = alloca ptr, align 8
  %6 = alloca i32, align 4
  store ptr %0, ptr %4, align 8
  store ptr %1, ptr %5, align 8
  store i32 %2, ptr %6, align 4
  %7 = load ptr, ptr %4, align 8
  %8 = load ptr, ptr %5, align 8
  %9 = load i32, ptr %6, align 4
  %10 = call noundef ptr @_ZN18ObjectSynchronizer12inflate_implEP10JavaThreadP7oopDescNS_12InflateCauseE(ptr noundef %7, ptr noundef %8, i32 noundef %9)
  ret ptr %10
}

; Function Attrs: mustprogress nounwind uwtable
define linkonce_odr hidden noundef ptr @_ZNK6HandleclEv(ptr noundef nonnull align 8 dereferenceable(8) %0) #1 comdat align 2 {
  %2 = alloca ptr, align 8
  store ptr %0, ptr %2, align 8
  %3 = load ptr, ptr %2, align 8
  %4 = call noundef ptr @_ZNK6Handle3objEv(ptr noundef nonnull align 8 dereferenceable(8) %3)
  ret ptr %4
}

; Function Attrs: mustprogress nounwind uwtable
define hidden void @_ZN18ObjectSynchronizer9enter_forE6HandleP9BasicLockP10JavaThread(ptr %0, ptr noundef %1, ptr noundef %2) #1 align 2 {
  %4 = alloca %class.Handle, align 8
  %5 = alloca ptr, align 8
  %6 = alloca ptr, align 8
  %7 = alloca %class.Handle, align 8
  %8 = alloca ptr, align 8
  %9 = getelementptr inbounds %class.Handle, ptr %4, i32 0, i32 0
  store ptr %0, ptr %9, align 8
  store ptr %1, ptr %5, align 8
  store ptr %2, ptr %6, align 8
  call void @llvm.memcpy.p0.p0.i64(ptr align 8 %7, ptr align 8 %4, i64 8, i1 false)
  %10 = load ptr, ptr %5, align 8
  %11 = load ptr, ptr %6, align 8
  %12 = getelementptr inbounds %class.Handle, ptr %7, i32 0, i32 0
  %13 = load ptr, ptr %12, align 8
  %14 = call noundef zeroext i1 @_ZN18ObjectSynchronizer15enter_fast_implE6HandleP9BasicLockP10JavaThread(ptr %13, ptr noundef %10, ptr noundef %11)
  br i1 %14, label %25, label %15

15:                                               ; preds = %3
  br label %16

16:                                               ; preds = %24, %15
  %17 = load ptr, ptr %6, align 8
  %18 = call noundef ptr @_ZNK6HandleclEv(ptr noundef nonnull align 8 dereferenceable(8) %4)
  %19 = call noundef ptr @_ZN18ObjectSynchronizer11inflate_forEP10JavaThreadP7oopDescNS_12InflateCauseE(ptr noundef %17, ptr noundef %18, i32 noundef 1)
  store ptr %19, ptr %8, align 8
  %20 = load ptr, ptr %8, align 8
  %21 = load ptr, ptr %6, align 8
  %22 = call noundef zeroext i1 @_ZN13ObjectMonitor9enter_forEP10JavaThread(ptr noundef nonnull align 8 dereferenceable(200) %20, ptr noundef %21)
  br i1 %22, label %23, label %24

23:                                               ; preds = %16
  br label %25

24:                                               ; preds = %16
  br label %16, !llvm.loop !18

25:                                               ; preds = %23, %3
  ret void
}