; Function Attrs: mustprogress nounwind uwtable
define hidden void @_ZN18ObjectSynchronizer9enter_forE6HandleP9BasicLockP10JavaThread(ptr readonly %0, ptr noundef %1, ptr noundef %2) local_unnamed_addr #0 align 2 {
  %4 = tail call noundef zeroext i1 @_ZN18ObjectSynchronizer15enter_fast_implE6HandleP9BasicLockP10JavaThread(ptr %0, ptr noundef %1, ptr noundef %2)
  br i1 %4, label %.loopexit, label %.preheader

.preheader:                                       ; preds = %3
  %5 = icmp eq ptr %0, null
  br i1 %5, label %_ZNK6HandleclEv.exit.us, label %_ZNK6HandleclEv.exit

_ZNK6HandleclEv.exit.us:                          ; preds = %.preheader, %_ZNK6HandleclEv.exit.us
  %6 = tail call noundef ptr @_ZN18ObjectSynchronizer12inflate_implEP10JavaThreadP7oopDescNS_12InflateCauseE(ptr noundef %2, ptr noundef null, i32 noundef 1)
  %7 = tail call noundef zeroext i1 @_ZN13ObjectMonitor9enter_forEP10JavaThread(ptr noundef nonnull align 8 dereferenceable(200) %6, ptr noundef %2) #18
  br i1 %7, label %.loopexit, label %_ZNK6HandleclEv.exit.us, !llvm.loop !25

_ZNK6HandleclEv.exit:                             ; preds = %.preheader, %_ZNK6HandleclEv.exit
  %8 = load ptr, ptr %0, align 8
  %9 = tail call noundef ptr @_ZN18ObjectSynchronizer12inflate_implEP10JavaThreadP7oopDescNS_12InflateCauseE(ptr noundef %2, ptr noundef %8, i32 noundef 1)
  %10 = tail call noundef zeroext i1 @_ZN13ObjectMonitor9enter_forEP10JavaThread(ptr noundef nonnull align 8 dereferenceable(200) %9, ptr noundef %2) #18
  br i1 %10, label %.loopexit, label %_ZNK6HandleclEv.exit, !llvm.loop !25

.loopexit:                                        ; preds = %_ZNK6HandleclEv.exit, %_ZNK6HandleclEv.exit.us, %3
  ret void
}